target datalayout = "e-m:e-p270:32:32-p271:32:32-p272:64:64-i64:64-i128:128-f80:128-n8:16:32:64-S128"
target triple = "x86_64-pc-linux-gnu"

%struct.fstReaderContext = type { ptr, ptr, i64, i64, i64, i64, i64, i32, i64, i64, ptr, ptr, ptr, i32, ptr, i8, i8, i8, [129 x i8], [120 x i8], i64, ptr, ptr, i64, i32, ptr, ptr, i64, i64, i8, ptr, i64, i64, ptr, i64, ptr, ptr, i64, i64, ptr, i32, i32, ptr, i32, i32, i32, i64, i8, %struct.fstHier, ptr, i32, ptr, i32, i8, [513 x i8], [513 x i8], ptr, i8, i32, i32, [65536 x i8], ptr, ptr }
%struct.fstHier = type { i8, %union.anon }
%union.anon = type { %"struct.fstHier::(anonymous union)::fstHierAttr" }
%"struct.fstHier::(anonymous union)::fstHierAttr" = type { i8, i8, ptr, i64, i64, i32 }

@.str.1 = private unnamed_addr constant [6 x i8] c".hier\00", align 1
@.str.34 = private unnamed_addr constant [3 x i8] c"rb\00", align 1

; Function Attrs: mustprogress uwtable
define ptr @fstReaderOpen(ptr noundef %0) #0 {
  %2 = alloca ptr, align 8
  %3 = alloca ptr, align 8
  %4 = alloca i32, align 4
  %5 = alloca ptr, align 8
  %6 = alloca i32, align 4
  store ptr %0, ptr %2, align 8, !tbaa !6
  call void @llvm.lifetime.start.p0(i64 8, ptr %3) #15
  %7 = call noalias ptr @calloc(i64 noundef 1, i64 noundef 67264) #16
  store ptr %7, ptr %3, align 8, !tbaa !147
  %8 = load ptr, ptr %2, align 8, !tbaa !6
  %9 = icmp ne ptr %8, null
  br i1 %9, label %10, label %16

10:                                               ; preds = %1
  %11 = load ptr, ptr %2, align 8, !tbaa !6
  %12 = call noalias ptr @fopen(ptr noundef %11, ptr noundef @.str.34)
  %13 = load ptr, ptr %3, align 8, !tbaa !147
  %14 = getelementptr inbounds nuw %struct.fstReaderContext, ptr %13, i32 0, i32 0
  store ptr %12, ptr %14, align 8, !tbaa !179
  %15 = icmp ne ptr %12, null
  br i1 %15, label %18, label %16

16:                                               ; preds = %10, %1
  %17 = load ptr, ptr %3, align 8, !tbaa !147
  call void @free(ptr noundef %17) #15
  store ptr null, ptr %3, align 8, !tbaa !147
  br label %88

18:                                               ; preds = %10
  call void @llvm.lifetime.start.p0(i64 4, ptr %4) #15
  %19 = load ptr, ptr %2, align 8, !tbaa !6
  %20 = call i64 @strlen(ptr noundef %19) #17
  %21 = trunc i64 %20 to i32
  store i32 %21, ptr %4, align 4, !tbaa !11
  call void @llvm.lifetime.start.p0(i64 8, ptr %5) #15
  %22 = load i32, ptr %4, align 4, !tbaa !11
  %23 = add nsw i32 %22, 6
  %24 = sext i32 %23 to i64
  %25 = call noalias ptr @calloc(i64 noundef 1, i64 noundef %24) #16
  store ptr %25, ptr %5, align 8, !tbaa !6
  call void @llvm.lifetime.start.p0(i64 4, ptr %6) #15
  %26 = load ptr, ptr %5, align 8, !tbaa !6
  %27 = load ptr, ptr %2, align 8, !tbaa !6
  %28 = load i32, ptr %4, align 4, !tbaa !11
  %29 = sext i32 %28 to i64
  call void @llvm.memcpy.p0.p0.i64(ptr align 1 %26, ptr align 1 %27, i64 %29, i1 false)
  %30 = load ptr, ptr %5, align 8, !tbaa !6
  %31 = load i32, ptr %4, align 4, !tbaa !11
  %32 = sext i32 %31 to i64
  %33 = getelementptr inbounds i8, ptr %30, i64 %32
  %34 = call ptr @strcpy(ptr noundef %33, ptr noundef @.str.1) #15
  %35 = load ptr, ptr %5, align 8, !tbaa !6
  %36 = call noalias ptr @fopen(ptr noundef %35, ptr noundef @.str.34)
  %37 = load ptr, ptr %3, align 8, !tbaa !147
  %38 = getelementptr inbounds nuw %struct.fstReaderContext, ptr %37, i32 0, i32 1
  store ptr %36, ptr %38, align 8, !tbaa !178
  %39 = load ptr, ptr %5, align 8, !tbaa !6
  call void @free(ptr noundef %39) #15
  %40 = load ptr, ptr %2, align 8, !tbaa !6
  %41 = call noalias ptr @strdup(ptr noundef %40) #15
  %42 = load ptr, ptr %3, align 8, !tbaa !147
  %43 = getelementptr inbounds nuw %struct.fstReaderContext, ptr %42, i32 0, i32 21
  store ptr %41, ptr %43, align 8, !tbaa !180
  %44 = load ptr, ptr %3, align 8, !tbaa !147
  %45 = call noundef i32 @_Z13fstReaderInitP16fstReaderContext(ptr noundef %44)
  store i32 %45, ptr %6, align 4, !tbaa !11
  %46 = load i32, ptr %6, align 4, !tbaa !11
  %47 = icmp ne i32 %46, 0
  br i1 %47, label %48, label %85

48:                                               ; preds = %18
  %49 = load ptr, ptr %3, align 8, !tbaa !147
  %50 = getelementptr inbounds nuw %struct.fstReaderContext, ptr %49, i32 0, i32 9
  %51 = load i64, ptr %50, align 8, !tbaa !170
  %52 = icmp ne i64 %51, 0
  br i1 %52, label %53, label %85

53:                                               ; preds = %48
  %54 = load ptr, ptr %3, align 8, !tbaa !147
  %55 = getelementptr inbounds nuw %struct.fstReaderContext, ptr %54, i32 0, i32 7
  %56 = load i32, ptr %55, align 8, !tbaa !161
  %57 = icmp ne i32 %56, 0
  br i1 %57, label %58, label %85

58:                                               ; preds = %53
  %59 = load ptr, ptr %3, align 8, !tbaa !147
  %60 = getelementptr inbounds nuw %struct.fstReaderContext, ptr %59, i32 0, i32 1
  %61 = load ptr, ptr %60, align 8, !tbaa !178
  %62 = icmp ne ptr %61, null
  br i1 %62, label %79, label %63

63:                                               ; preds = %58
  %64 = load ptr, ptr %3, align 8, !tbaa !147
  %65 = getelementptr inbounds nuw %struct.fstReaderContext, ptr %64, i32 0, i32 17
  %66 = load i8, ptr %65, align 2
  %67 = lshr i8 %66, 4
  %68 = and i8 %67, 1
  %69 = zext i8 %68 to i32
  %70 = icmp ne i32 %69, 0
  br i1 %70, label %79, label %71

71:                                               ; preds = %63
  %72 = load ptr, ptr %3, align 8, !tbaa !147
  %73 = getelementptr inbounds nuw %struct.fstReaderContext, ptr %72, i32 0, i32 17
  %74 = load i8, ptr %73, align 2
  %75 = lshr i8 %74, 6
  %76 = and i8 %75, 1
  %77 = zext i8 %76 to i32
  %78 = icmp ne i32 %77, 0
  br i1 %78, label %79, label %85

79:                                               ; preds = %71, %63, %58
  %80 = load ptr, ptr %3, align 8, !tbaa !147
  %81 = getelementptr inbounds nuw %struct.fstReaderContext, ptr %80, i32 0, i32 53
  %82 = load i8, ptr %81, align 4
  %83 = and i8 %82, -2
  %84 = or i8 %83, 1
  store i8 %84, ptr %81, align 4
  br label %87

85:                                               ; preds = %71, %53, %48, %18
  %86 = load ptr, ptr %3, align 8, !tbaa !147
  call void @fstReaderClose(ptr noundef %86)
  store ptr null, ptr %3, align 8, !tbaa !147
  br label %87

87:                                               ; preds = %85, %79
  call void @llvm.lifetime.end.p0(i64 4, ptr %6) #15
  call void @llvm.lifetime.end.p0(i64 8, ptr %5) #15
  call void @llvm.lifetime.end.p0(i64 4, ptr %4) #15
  br label %88

88:                                               ; preds = %87, %16
  %89 = load ptr, ptr %3, align 8, !tbaa !147
  call void @llvm.lifetime.end.p0(i64 8, ptr %3) #15
  ret ptr %89
}