; Function Attrs: mustprogress uwtable
define noundef ptr @fstReaderOpen(ptr noundef readonly captures(address_is_null) %0) local_unnamed_addr #12 {
  %2 = tail call noalias dereferenceable_or_null(67264) ptr @calloc(i64 noundef 1, i64 noundef 67264) #38
  %.not = icmp eq ptr %0, null
  br i1 %.not, label %5, label %3

3:                                                ; preds = %1
  %4 = tail call noalias ptr @fopen(ptr noundef nonnull %0, ptr noundef nonnull @.str.34)
  store ptr %4, ptr %2, align 8, !tbaa !153
  %.not26 = icmp eq ptr %4, null
  br i1 %.not26, label %5, label %6

5:                                                ; preds = %3, %1
  tail call void @free(ptr noundef %2) #39
  br label %35

6:                                                ; preds = %3
  %7 = tail call i64 @strlen(ptr noundef nonnull dereferenceable(1) %0) #40
  %8 = shl i64 %7, 32
  %sext = add i64 %8, 25769803776
  %9 = ashr exact i64 %sext, 32
  %10 = tail call noalias ptr @calloc(i64 noundef 1, i64 noundef %9) #38
  %11 = ashr exact i64 %8, 32
  tail call void @llvm.memcpy.p0.p0.i64(ptr align 1 %10, ptr nonnull align 1 %0, i64 %11, i1 false)
  %12 = getelementptr inbounds i8, ptr %10, i64 %11
  tail call void @llvm.memcpy.p0.p0.i64(ptr noundef nonnull align 1 dereferenceable(6) %12, ptr noundef nonnull align 1 dereferenceable(6) @.str.1, i64 6, i1 false) #39
  %13 = tail call noalias ptr @fopen(ptr noundef %10, ptr noundef nonnull @.str.34)
  %14 = getelementptr inbounds nuw i8, ptr %2, i64 8
  store ptr %13, ptr %14, align 8, !tbaa !152
  tail call void @free(ptr noundef %10) #39
  %15 = tail call noalias ptr @strdup(ptr noundef nonnull %0) #39
  %16 = getelementptr inbounds nuw i8, ptr %2, i64 384
  store ptr %15, ptr %16, align 8, !tbaa !154
  %17 = tail call noundef i32 @_Z13fstReaderInitP16fstReaderContext(ptr noundef nonnull %2)
  %.not28 = icmp eq i32 %17, 0
  br i1 %.not28, label %34, label %18

18:                                               ; preds = %6
  %19 = getelementptr inbounds nuw i8, ptr %2, i64 72
  %20 = load i64, ptr %19, align 8, !tbaa !144
  %.not29 = icmp eq i64 %20, 0
  br i1 %.not29, label %34, label %21

21:                                               ; preds = %18
  %22 = getelementptr inbounds nuw i8, ptr %2, i64 56
  %23 = load i32, ptr %22, align 8, !tbaa !135
  %.not30 = icmp eq i32 %23, 0
  br i1 %.not30, label %34, label %24

24:                                               ; preds = %21
  %25 = load ptr, ptr %14, align 8, !tbaa !152
  %.not31 = icmp eq ptr %25, null
  br i1 %.not31, label %26, label %30

26:                                               ; preds = %24
  %27 = getelementptr inbounds nuw i8, ptr %2, i64 122
  %28 = load i8, ptr %27, align 2
  %29 = and i8 %28, 80
  %or.cond = icmp eq i8 %29, 0
  br i1 %or.cond, label %34, label %30

30:                                               ; preds = %26, %24
  %31 = getelementptr inbounds nuw i8, ptr %2, i64 660
  %32 = load i8, ptr %31, align 4
  %33 = or i8 %32, 1
  store i8 %33, ptr %31, align 4
  br label %35

34:                                               ; preds = %26, %21, %18, %6
  tail call void @fstReaderClose(ptr noundef nonnull %2)
  br label %35

35:                                               ; preds = %30, %34, %5
  %.0 = phi ptr [ null, %5 ], [ %2, %30 ], [ null, %34 ]
  ret ptr %.0
}